target datalayout = "e-m:e-p270:32:32-p271:32:32-p272:64:64-i64:64-i128:128-f80:128-n8:16:32:64-S128"
target triple = "x86_64-pc-linux-gnu"

%"class.net::SpdyFramerVisitorAdapter" = type { %"class.net::SpdyFramerVisitorInterface", ptr, ptr }
%"class.net::SpdyFramerVisitorInterface" = type { ptr }
%"class.base::BasicStringPiece" = type { ptr, i64 }

; Function Attrs: mustprogress uwtable
define void @_ZN3net24SpdyFramerVisitorAdapter8OnAltSvcEjN4base16BasicStringPieceINSt7__cxx1112basic_stringIcSt11char_traitsIcESaIcEEEEERKSt6vectorINS_20SpdyAltSvcWireFormat18AlternativeServiceESaISC_EE(ptr noundef nonnull align 8 dereferenceable(24) %0, i32 noundef %1, ptr %2, i64 %3, ptr noundef nonnull align 8 dereferenceable(24) %4) unnamed_addr #2 align 2 {
  %6 = alloca %"class.base::BasicStringPiece", align 8
  %7 = alloca ptr, align 8
  %8 = alloca i32, align 4
  %9 = alloca ptr, align 8
  %10 = alloca %"class.base::BasicStringPiece", align 8
  %11 = getelementptr inbounds nuw { ptr, i64 }, ptr %6, i32 0, i32 0
  store ptr %2, ptr %11, align 8
  %12 = getelementptr inbounds nuw { ptr, i64 }, ptr %6, i32 0, i32 1
  store i64 %3, ptr %12, align 8
  store ptr %0, ptr %7, align 8, !tbaa !22
  store i32 %1, ptr %8, align 4, !tbaa !30
  store ptr %4, ptr %9, align 8, !tbaa !43
  %13 = load ptr, ptr %7, align 8
  %14 = getelementptr inbounds nuw %"class.net::SpdyFramerVisitorAdapter", ptr %13, i32 0, i32 1
  %15 = load ptr, ptr %14, align 8, !tbaa !26
  %16 = load i32, ptr %8, align 4, !tbaa !30
  call void @llvm.memcpy.p0.p0.i64(ptr align 8 %10, ptr align 8 %6, i64 16, i1 false), !tbaa.struct !45
  %17 = load ptr, ptr %9, align 8, !tbaa !43
  %18 = getelementptr inbounds nuw { ptr, i64 }, ptr %10, i32 0, i32 0
  %19 = load ptr, ptr %18, align 8
  %20 = getelementptr inbounds nuw { ptr, i64 }, ptr %10, i32 0, i32 1
  %21 = load i64, ptr %20, align 8
  %22 = load ptr, ptr %15, align 8, !tbaa !8
  %23 = getelementptr inbounds ptr, ptr %22, i64 27
  %24 = load ptr, ptr %23, align 8
  call void %24(ptr noundef nonnull align 8 dereferenceable(8) %15, i32 noundef %16, ptr %19, i64 %21, ptr noundef nonnull align 8 dereferenceable(24) %17)
  ret void
}