; Function Attrs: mustprogress uwtable
define void @_ZN3net24SpdyFramerVisitorAdapter8OnAltSvcEjN4base16BasicStringPieceINSt7__cxx1112basic_stringIcSt11char_traitsIcESaIcEEEEERKSt6vectorINS_20SpdyAltSvcWireFormat18AlternativeServiceESaISC_EE(ptr noundef nonnull readonly align 8 captures(none) dereferenceable(24) %0, i32 noundef %1, ptr %2, i64 %3, ptr noundef nonnull align 8 dereferenceable(24) %4) unnamed_addr #3 align 2 {
  %6 = getelementptr inbounds nuw i8, ptr %0, i64 8
  %7 = load ptr, ptr %6, align 8, !tbaa !15
  %8 = load ptr, ptr %7, align 8, !tbaa !3
  %9 = getelementptr inbounds nuw i8, ptr %8, i64 216
  %10 = load ptr, ptr %9, align 8
  tail call void %10(ptr noundef nonnull align 8 dereferenceable(8) %7, i32 noundef %1, ptr %2, i64 %3, ptr noundef nonnull align 8 dereferenceable(24) %4)
  ret void
}